target datalayout = "e-m:e-p270:32:32-p271:32:32-p272:64:64-i64:64-i128:128-f80:128-n8:16:32:64-S128"
target triple = "x86_64-pc-linux-gnu"

%"class.lean::object_ref" = type { ptr }
%struct.lean_object = type { i32, i32 }
%struct.lean_ctor_object = type { %struct.lean_object, [0 x ptr] }

@_ZTIN4lean34declaration_has_metavars_exceptionE = linkonce_odr hidden constant { ptr, ptr, ptr } { ptr getelementptr inbounds (ptr, ptr @_ZTVN10__cxxabiv120__si_class_type_infoE, i64 2), ptr @_ZTSN4lean34declaration_has_metavars_exceptionE, ptr @_ZTIN4lean16kernel_exceptionE }, comdat, align 8
@_ZTIN4lean35declaration_has_free_vars_exceptionE = linkonce_odr hidden constant { ptr, ptr, ptr } { ptr getelementptr inbounds (ptr, ptr @_ZTVN10__cxxabiv120__si_class_type_infoE, i64 2), ptr @_ZTSN4lean35declaration_has_free_vars_exceptionE, ptr @_ZTIN4lean16kernel_exceptionE }, comdat, align 8

; Function Attrs: inlinehint mustprogress nounwind uwtable
define internal noundef ptr @_ZL12lean_to_ctorP11lean_object(ptr noundef %0) #6 {
  %2 = alloca ptr, align 8
  store ptr %0, ptr %2, align 8, !tbaa !24
  %3 = load ptr, ptr %2, align 8, !tbaa !24
  ret ptr %3
}

; Function Attrs: inlinehint mustprogress uwtable
define internal noundef ptr @_ZL18lean_ctor_obj_cptrP11lean_object(ptr noundef %0) #7 {
  %2 = alloca ptr, align 8
  store ptr %0, ptr %2, align 8, !tbaa !24
  %3 = load ptr, ptr %2, align 8, !tbaa !24
  %4 = call noundef ptr @_ZL12lean_to_ctorP11lean_object(ptr noundef %3)
  %5 = getelementptr inbounds nuw %struct.lean_ctor_object, ptr %4, i32 0, i32 1
  %6 = getelementptr inbounds [0 x ptr], ptr %5, i64 0, i64 0
  ret ptr %6
}

; Function Attrs: inlinehint mustprogress nounwind uwtable
define internal noundef i32 @_ZL14lean_ptr_otherP11lean_object(ptr noundef %0) #6 {
  %2 = alloca ptr, align 8
  store ptr %0, ptr %2, align 8, !tbaa !24
  %3 = load ptr, ptr %2, align 8, !tbaa !24
  %4 = getelementptr inbounds nuw %struct.lean_object, ptr %3, i32 0, i32 1
  %5 = load i32, ptr %4, align 4
  %6 = lshr i32 %5, 16
  %7 = and i32 %6, 255
  ret i32 %7
}

; Function Attrs: inlinehint mustprogress uwtable
define internal noundef i64 @_ZL20lean_ctor_get_uint64P11lean_objectj(ptr noundef %0, i32 noundef %1) #7 {
  %3 = alloca ptr, align 8
  %4 = alloca i32, align 4
  store ptr %0, ptr %3, align 8, !tbaa !24
  store i32 %1, ptr %4, align 4, !tbaa !29
  %5 = load ptr, ptr %3, align 8, !tbaa !24
  %6 = call noundef ptr @_ZL18lean_ctor_obj_cptrP11lean_object(ptr noundef %5)
  %7 = load i32, ptr %4, align 4, !tbaa !29
  %8 = zext i32 %7 to i64
  %9 = getelementptr inbounds nuw i8, ptr %6, i64 %8
  %10 = load i64, ptr %9, align 8, !tbaa !73
  ret i64 %10
}

; Function Attrs: inlinehint mustprogress uwtable
define internal noundef i32 @_ZL18lean_ctor_num_objsP11lean_object(ptr noundef %0) #7 {
  %2 = alloca ptr, align 8
  store ptr %0, ptr %2, align 8, !tbaa !24
  %3 = load ptr, ptr %2, align 8, !tbaa !24
  %4 = call noundef i32 @_ZL14lean_ptr_otherP11lean_object(ptr noundef %3)
  ret i32 %4
}

; Function Attrs: mustprogress nounwind uwtable
define linkonce_odr hidden noundef ptr @_ZNK4lean10object_ref3rawEv(ptr noundef nonnull align 8 dereferenceable(8) %0) #5 comdat align 2 {
  %2 = alloca ptr, align 8
  store ptr %0, ptr %2, align 8, !tbaa !12
  %3 = load ptr, ptr %2, align 8
  %4 = getelementptr inbounds nuw %"class.lean::object_ref", ptr %3, i32 0, i32 0
  %5 = load ptr, ptr %4, align 8, !tbaa !10
  ret ptr %5
}

; Function Attrs: inlinehint mustprogress uwtable
define linkonce_odr hidden noundef zeroext i1 @_ZN4lean13has_univ_mvarERKNS_4exprE(ptr noundef nonnull align 8 dereferenceable(8) %0) #7 comdat {
  %2 = alloca ptr, align 8
  %3 = alloca i8, align 1
  store ptr %0, ptr %2, align 8, !tbaa !33
  call void @llvm.lifetime.start.p0(i64 1, ptr %3) #17
  %4 = load ptr, ptr %2, align 8, !tbaa !33
  %5 = call noundef i64 @_ZN4lean8get_dataERKNS_4exprE(ptr noundef nonnull align 8 dereferenceable(8) %4)
  %6 = lshr i64 %5, 42
  %7 = and i64 %6, 1
  %8 = icmp eq i64 %7, 1
  %9 = zext i1 %8 to i8
  store i8 %9, ptr %3, align 1, !tbaa !18
  %10 = load i8, ptr %3, align 1, !tbaa !18, !range !20, !noundef !21
  %11 = trunc i8 %10 to i1
  call void @llvm.lifetime.end.p0(i64 1, ptr %3) #17
  ret i1 %11
}

; Function Attrs: inlinehint mustprogress uwtable
define linkonce_odr hidden noundef zeroext i1 @_ZN4lean13has_expr_mvarERKNS_4exprE(ptr noundef nonnull align 8 dereferenceable(8) %0) #7 comdat {
  %2 = alloca ptr, align 8
  %3 = alloca i8, align 1
  store ptr %0, ptr %2, align 8, !tbaa !33
  call void @llvm.lifetime.start.p0(i64 1, ptr %3) #17
  %4 = load ptr, ptr %2, align 8, !tbaa !33
  %5 = call noundef i64 @_ZN4lean8get_dataERKNS_4exprE(ptr noundef nonnull align 8 dereferenceable(8) %4)
  %6 = lshr i64 %5, 41
  %7 = and i64 %6, 1
  %8 = icmp eq i64 %7, 1
  %9 = zext i1 %8 to i8
  store i8 %9, ptr %3, align 1, !tbaa !18
  %10 = load i8, ptr %3, align 1, !tbaa !18, !range !20, !noundef !21
  %11 = trunc i8 %10 to i1
  call void @llvm.lifetime.end.p0(i64 1, ptr %3) #17
  ret i1 %11
}

; Function Attrs: inlinehint mustprogress uwtable
define linkonce_odr hidden noundef i64 @_ZN4lean8get_dataERKNS_4exprE(ptr noundef nonnull align 8 dereferenceable(8) %0) #7 comdat {
  %2 = alloca ptr, align 8
  store ptr %0, ptr %2, align 8, !tbaa !33
  %3 = load ptr, ptr %2, align 8, !tbaa !33
  %4 = call noundef ptr @_ZNK4lean10object_ref3rawEv(ptr noundef nonnull align 8 dereferenceable(8) %3)
  %5 = load ptr, ptr %2, align 8, !tbaa !33
  %6 = call noundef ptr @_ZNK4lean10object_ref3rawEv(ptr noundef nonnull align 8 dereferenceable(8) %5)
  %7 = call noundef i32 @_ZL18lean_ctor_num_objsP11lean_object(ptr noundef %6)
  %8 = zext i32 %7 to i64
  %9 = mul i64 %8, 8
  %10 = trunc i64 %9 to i32
  %11 = call noundef i64 @_ZL20lean_ctor_get_uint64P11lean_objectj(ptr noundef %4, i32 noundef %10)
  ret i64 %11
}

; Function Attrs: inlinehint mustprogress uwtable
define linkonce_odr hidden noundef zeroext i1 @_ZN4lean8has_mvarERKNS_4exprE(ptr noundef nonnull align 8 dereferenceable(8) %0) #7 comdat {
  %2 = alloca ptr, align 8
  store ptr %0, ptr %2, align 8, !tbaa !33
  %3 = load ptr, ptr %2, align 8, !tbaa !33
  %4 = call noundef zeroext i1 @_ZN4lean13has_expr_mvarERKNS_4exprE(ptr noundef nonnull align 8 dereferenceable(8) %3)
  br i1 %4, label %8, label %5

5:                                                ; preds = %1
  %6 = load ptr, ptr %2, align 8, !tbaa !33
  %7 = call noundef zeroext i1 @_ZN4lean13has_univ_mvarERKNS_4exprE(ptr noundef nonnull align 8 dereferenceable(8) %6)
  br label %8

8:                                                ; preds = %5, %1
  %9 = phi i1 [ true, %1 ], [ %7, %5 ]
  ret i1 %9
}

; Function Attrs: inlinehint mustprogress uwtable
define linkonce_odr hidden noundef zeroext i1 @_ZN4lean8has_fvarERKNS_4exprE(ptr noundef nonnull align 8 dereferenceable(8) %0) #7 comdat {
  %2 = alloca ptr, align 8
  %3 = alloca i8, align 1
  store ptr %0, ptr %2, align 8, !tbaa !33
  call void @llvm.lifetime.start.p0(i64 1, ptr %3) #17
  %4 = load ptr, ptr %2, align 8, !tbaa !33
  %5 = call noundef i64 @_ZN4lean8get_dataERKNS_4exprE(ptr noundef nonnull align 8 dereferenceable(8) %4)
  %6 = lshr i64 %5, 40
  %7 = and i64 %6, 1
  %8 = icmp eq i64 %7, 1
  %9 = zext i1 %8 to i8
  store i8 %9, ptr %3, align 1, !tbaa !18
  %10 = load i8, ptr %3, align 1, !tbaa !18, !range !20, !noundef !21
  %11 = trunc i8 %10 to i1
  call void @llvm.lifetime.end.p0(i64 1, ptr %3) #17
  ret i1 %11
}

; Function Attrs: inlinehint mustprogress uwtable
define linkonce_odr hidden noundef zeroext i1 @_ZN4lean11has_metavarERKNS_4exprE(ptr noundef nonnull align 8 dereferenceable(8) %0) #7 comdat {
  %2 = alloca ptr, align 8
  store ptr %0, ptr %2, align 8, !tbaa !33
  %3 = load ptr, ptr %2, align 8, !tbaa !33
  %4 = call noundef zeroext i1 @_ZN4lean8has_mvarERKNS_4exprE(ptr noundef nonnull align 8 dereferenceable(8) %3)
  ret i1 %4
}

; Function Attrs: mustprogress uwtable
define internal void @_ZN4leanL13check_no_fvarERKNS_11environmentERKNS_4nameERKNS_4exprE(ptr noundef nonnull align 8 dereferenceable(8) %0, ptr noundef nonnull align 8 dereferenceable(8) %1, ptr noundef nonnull align 8 dereferenceable(8) %2) #0 personality ptr @__gxx_personality_v0 {
  %4 = alloca ptr, align 8
  %5 = alloca ptr, align 8
  %6 = alloca ptr, align 8
  %7 = alloca ptr, align 8
  %8 = alloca i32, align 4
  store ptr %0, ptr %4, align 8, !tbaa !16
  store ptr %1, ptr %5, align 8, !tbaa !8
  store ptr %2, ptr %6, align 8, !tbaa !33
  %9 = load ptr, ptr %6, align 8, !tbaa !33
  %10 = call noundef zeroext i1 @_ZN4lean8has_fvarERKNS_4exprE(ptr noundef nonnull align 8 dereferenceable(8) %9)
  br i1 %10, label %11, label %21

11:                                               ; preds = %3
  %12 = call ptr @__cxa_allocate_exception(i64 64) #17
  %13 = load ptr, ptr %4, align 8, !tbaa !16
  %14 = load ptr, ptr %5, align 8, !tbaa !8
  %15 = load ptr, ptr %6, align 8, !tbaa !33
  invoke void @_ZN4lean35declaration_has_free_vars_exceptionC2ERKNS_11environmentERKNS_4nameERKNS_4exprE(ptr noundef nonnull align 8 dereferenceable(64) %12, ptr noundef nonnull align 8 dereferenceable(8) %13, ptr noundef nonnull align 8 dereferenceable(8) %14, ptr noundef nonnull align 8 dereferenceable(8) %15)
          to label %16 unwind label %17

16:                                               ; preds = %11
  call void @__cxa_throw(ptr %12, ptr @_ZTIN4lean35declaration_has_free_vars_exceptionE, ptr @_ZN4lean35declaration_has_free_vars_exceptionD2Ev) #20
  unreachable

17:                                               ; preds = %11
  %18 = landingpad { ptr, i32 }
          cleanup
  %19 = extractvalue { ptr, i32 } %18, 0
  store ptr %19, ptr %7, align 8
  %20 = extractvalue { ptr, i32 } %18, 1
  store i32 %20, ptr %8, align 4
  call void @__cxa_free_exception(ptr %12) #17
  br label %22

21:                                               ; preds = %3
  ret void

22:                                               ; preds = %17
  %23 = load ptr, ptr %7, align 8
  %24 = load i32, ptr %8, align 4
  %25 = insertvalue { ptr, i32 } poison, ptr %23, 0
  %26 = insertvalue { ptr, i32 } %25, i32 %24, 1
  resume { ptr, i32 } %26
}

; Function Attrs: mustprogress uwtable
define internal void @_ZN4leanL16check_no_metavarERKNS_11environmentERKNS_4nameERKNS_4exprE(ptr noundef nonnull align 8 dereferenceable(8) %0, ptr noundef nonnull align 8 dereferenceable(8) %1, ptr noundef nonnull align 8 dereferenceable(8) %2) #0 personality ptr @__gxx_personality_v0 {
  %4 = alloca ptr, align 8
  %5 = alloca ptr, align 8
  %6 = alloca ptr, align 8
  %7 = alloca ptr, align 8
  %8 = alloca i32, align 4
  store ptr %0, ptr %4, align 8, !tbaa !16
  store ptr %1, ptr %5, align 8, !tbaa !8
  store ptr %2, ptr %6, align 8, !tbaa !33
  %9 = load ptr, ptr %6, align 8, !tbaa !33
  %10 = call noundef zeroext i1 @_ZN4lean11has_metavarERKNS_4exprE(ptr noundef nonnull align 8 dereferenceable(8) %9)
  br i1 %10, label %11, label %21

11:                                               ; preds = %3
  %12 = call ptr @__cxa_allocate_exception(i64 64) #17
  %13 = load ptr, ptr %4, align 8, !tbaa !16
  %14 = load ptr, ptr %5, align 8, !tbaa !8
  %15 = load ptr, ptr %6, align 8, !tbaa !33
  invoke void @_ZN4lean34declaration_has_metavars_exceptionC2ERKNS_11environmentERKNS_4nameERKNS_4exprE(ptr noundef nonnull align 8 dereferenceable(64) %12, ptr noundef nonnull align 8 dereferenceable(8) %13, ptr noundef nonnull align 8 dereferenceable(8) %14, ptr noundef nonnull align 8 dereferenceable(8) %15)
          to label %16 unwind label %17

16:                                               ; preds = %11
  call void @__cxa_throw(ptr %12, ptr @_ZTIN4lean34declaration_has_metavars_exceptionE, ptr @_ZN4lean34declaration_has_metavars_exceptionD2Ev) #20
  unreachable

17:                                               ; preds = %11
  %18 = landingpad { ptr, i32 }
          cleanup
  %19 = extractvalue { ptr, i32 } %18, 0
  store ptr %19, ptr %7, align 8
  %20 = extractvalue { ptr, i32 } %18, 1
  store i32 %20, ptr %8, align 4
  call void @__cxa_free_exception(ptr %12) #17
  br label %22

21:                                               ; preds = %3
  ret void

22:                                               ; preds = %17
  %23 = load ptr, ptr %7, align 8
  %24 = load i32, ptr %8, align 4
  %25 = insertvalue { ptr, i32 } poison, ptr %23, 0
  %26 = insertvalue { ptr, i32 } %25, i32 %24, 1
  resume { ptr, i32 } %26
}

; Function Attrs: mustprogress uwtable
define hidden void @_ZN4lean24check_no_metavar_no_fvarERKNS_11environmentERKNS_4nameERKNS_4exprE(ptr noundef nonnull align 8 dereferenceable(8) %0, ptr noundef nonnull align 8 dereferenceable(8) %1, ptr noundef nonnull align 8 dereferenceable(8) %2) #0 {
  %4 = alloca ptr, align 8
  %5 = alloca ptr, align 8
  %6 = alloca ptr, align 8
  store ptr %0, ptr %4, align 8, !tbaa !16
  store ptr %1, ptr %5, align 8, !tbaa !8
  store ptr %2, ptr %6, align 8, !tbaa !33
  %7 = load ptr, ptr %4, align 8, !tbaa !16
  %8 = load ptr, ptr %5, align 8, !tbaa !8
  %9 = load ptr, ptr %6, align 8, !tbaa !33
  call void @_ZN4leanL16check_no_metavarERKNS_11environmentERKNS_4nameERKNS_4exprE(ptr noundef nonnull align 8 dereferenceable(8) %7, ptr noundef nonnull align 8 dereferenceable(8) %8, ptr noundef nonnull align 8 dereferenceable(8) %9)
  %10 = load ptr, ptr %4, align 8, !tbaa !16
  %11 = load ptr, ptr %5, align 8, !tbaa !8
  %12 = load ptr, ptr %6, align 8, !tbaa !33
  call void @_ZN4leanL13check_no_fvarERKNS_11environmentERKNS_4nameERKNS_4exprE(ptr noundef nonnull align 8 dereferenceable(8) %10, ptr noundef nonnull align 8 dereferenceable(8) %11, ptr noundef nonnull align 8 dereferenceable(8) %12)
  ret void
}