; Function Attrs: mustprogress uwtable
define hidden void @_ZN4lean24check_no_metavar_no_fvarERKNS_11environmentERKNS_4nameERKNS_4exprE(ptr noundef nonnull align 8 dereferenceable(8) %0, ptr noundef nonnull align 8 dereferenceable(8) %1, ptr noundef nonnull align 8 dereferenceable(8) %2) local_unnamed_addr #0 personality ptr @__gxx_personality_v0 {
  %4 = load ptr, ptr %2, align 8, !tbaa !3
  %5 = getelementptr i8, ptr %4, i64 4
  %.val.i.i.i.i.i = load i32, ptr %5, align 4
  %6 = lshr i32 %.val.i.i.i.i.i, 13
  %7 = and i32 %6, 2040
  %8 = getelementptr inbounds nuw i8, ptr %4, i64 8
  %9 = zext nneg i32 %7 to i64
  %10 = getelementptr inbounds nuw i8, ptr %8, i64 %9
  %11 = load i64, ptr %10, align 8, !tbaa !28
  %12 = and i64 %11, 6597069766656
  %.not.i = icmp eq i64 %12, 0
  br i1 %.not.i, label %_ZN4leanL16check_no_metavarERKNS_11environmentERKNS_4nameERKNS_4exprE.exit, label %13

13:                                               ; preds = %3
  %14 = tail call ptr @__cxa_allocate_exception(i64 64) #20
  invoke void @_ZN4lean34declaration_has_metavars_exceptionC2ERKNS_11environmentERKNS_4nameERKNS_4exprE(ptr noundef nonnull align 8 dereferenceable(64) %14, ptr noundef nonnull align 8 dereferenceable(8) %0, ptr noundef nonnull align 8 dereferenceable(8) %1, ptr noundef nonnull align 8 dereferenceable(8) %2)
          to label %15 unwind label %16

15:                                               ; preds = %13
  tail call void @__cxa_throw(ptr nonnull %14, ptr nonnull @_ZTIN4lean34declaration_has_metavars_exceptionE, ptr nonnull @_ZN4lean34declaration_has_metavars_exceptionD2Ev) #24
  unreachable

common.resume:                                    ; preds = %22, %16
  %.sink = phi ptr [ %20, %22 ], [ %14, %16 ]
  %common.resume.op = phi { ptr, i32 } [ %23, %22 ], [ %17, %16 ]
  tail call void @__cxa_free_exception(ptr nonnull %.sink) #20
  resume { ptr, i32 } %common.resume.op

16:                                               ; preds = %13
  %17 = landingpad { ptr, i32 }
          cleanup
  br label %common.resume

_ZN4leanL16check_no_metavarERKNS_11environmentERKNS_4nameERKNS_4exprE.exit: ; preds = %3
  %18 = and i64 %11, 1099511627776
  %.not.i6 = icmp eq i64 %18, 0
  br i1 %.not.i6, label %_ZN4leanL13check_no_fvarERKNS_11environmentERKNS_4nameERKNS_4exprE.exit, label %19

19:                                               ; preds = %_ZN4leanL16check_no_metavarERKNS_11environmentERKNS_4nameERKNS_4exprE.exit
  %20 = tail call ptr @__cxa_allocate_exception(i64 64) #20
  invoke void @_ZN4lean35declaration_has_free_vars_exceptionC2ERKNS_11environmentERKNS_4nameERKNS_4exprE(ptr noundef nonnull align 8 dereferenceable(64) %20, ptr noundef nonnull align 8 dereferenceable(8) %0, ptr noundef nonnull align 8 dereferenceable(8) %1, ptr noundef nonnull align 8 dereferenceable(8) %2)
          to label %21 unwind label %22

21:                                               ; preds = %19
  tail call void @__cxa_throw(ptr nonnull %20, ptr nonnull @_ZTIN4lean35declaration_has_free_vars_exceptionE, ptr nonnull @_ZN4lean35declaration_has_free_vars_exceptionD2Ev) #24
  unreachable

22:                                               ; preds = %19
  %23 = landingpad { ptr, i32 }
          cleanup
  br label %common.resume

_ZN4leanL13check_no_fvarERKNS_11environmentERKNS_4nameERKNS_4exprE.exit: ; preds = %_ZN4leanL16check_no_metavarERKNS_11environmentERKNS_4nameERKNS_4exprE.exit
  ret void
}